target datalayout = "e-m:e-p270:32:32-p271:32:32-p272:64:64-i64:64-i128:128-f80:128-n8:16:32:64-S128"
target triple = "x86_64-unknown-linux-gnu"

%class.symbol = type { ptr }
%class.ptr_vector = type { %class.vector.0 }
%class.vector.0 = type { ptr }
%class.ref_vector = type { %class.ref_vector_core }
%class.ref_vector_core = type { %class.ref_manager_wrapper, %class.ptr_vector.3 }
%class.ref_manager_wrapper = type { ptr }
%class.ptr_vector.3 = type { %class.vector.4 }
%class.vector.4 = type { ptr }
%class.obj_ref.50 = type { ptr, ptr }
%"class.datalog::context" = type <{ ptr, ptr, ptr, %class.params_ref, ptr, i8, i8, [6 x i8], %class.symbol, %"class.datalog::dl_decl_util", %class.th_rewriter, %class.var_subst, %"class.datalog::rule_manager", %"class.datalog::context::contains_pred", %"class.datalog::rule_properties", %"class.datalog::rule_transformer", %class.trail_stack, %class.ref_vector.85, %class.bind_variables, %class.obj_map.121, %class.obj_hashtable.126, %class.map.132, %class.obj_map.136, %"class.datalog::rule_set", %"class.datalog::rule_set", %class.expr_free_vars, i32, [4 x i8], %class.ref_vector.39, %class.svector.13, %class.vector.160, %class.ref_vector.39, %class.ref, %class.ref.161, ptr, %class.scoped_ptr.162, i8, i8, i8, i8, i32, %class.obj_ref.49, %class.obj_ref.49, i32, [4 x i8] }>
%class.params_ref = type { ptr }
%"class.datalog::dl_decl_util" = type <{ ptr, %class.scoped_ptr.33, %class.scoped_ptr.34, i32, [4 x i8] }>
%class.scoped_ptr.33 = type { ptr }
%class.scoped_ptr.34 = type { ptr }
%class.th_rewriter = type { ptr, %class.params_ref }
%class.var_subst = type { %class.beta_reducer, i8, [7 x i8] }
%class.beta_reducer = type <{ %class.rewriter_tpl, %struct.beta_reducer_cfg, [7 x i8] }>
%class.rewriter_tpl = type { %class.rewriter_core, ptr, i32, %class.ptr_vector.42, %class.var_shifter, %class.inv_var_shifter, %class.obj_ref.49, %class.obj_ref.50, %class.obj_ref.50, %class.svector }
%class.rewriter_core = type { ptr, ptr, i8, i8, %class.ptr_vector.35, ptr, %class.svector.37, %class.ref_vector.39, %class.ptr_vector.35, ptr, %class.ref_vector, %class.obj_hashtable, ptr, i32, %class.svector.47 }
%class.svector.37 = type { %class.vector.38 }
%class.vector.38 = type { ptr }
%class.ptr_vector.35 = type { %class.vector.36 }
%class.vector.36 = type { ptr }
%class.obj_hashtable = type { %class.core_hashtable.base.46, [4 x i8] }
%class.core_hashtable.base.46 = type <{ ptr, i32, i32, i32 }>
%class.svector.47 = type { %class.vector.48 }
%class.vector.48 = type { ptr }
%class.ptr_vector.42 = type { %class.vector.43 }
%class.vector.43 = type { ptr }
%class.var_shifter = type <{ %class.var_shifter_core, i32, i32, i32, [4 x i8] }>
%class.var_shifter_core = type { %class.rewriter_core }
%class.inv_var_shifter = type <{ %class.var_shifter_core, i32, [4 x i8] }>
%class.svector = type { %class.vector.5 }
%class.vector.5 = type { ptr }
%struct.beta_reducer_cfg = type { i8 }
%"class.datalog::rule_manager" = type { ptr, ptr, %"class.datalog::rule_counter", %class.used_vars, %class.uint_set, %class.expr_free_vars, %class.ref_vector, %class.obj_ref.50, %class.ref_vector.39, %class.svector.62, %class.hnf, %class.qe_lite, %class.label_rewriter, %"struct.datalog::uninterpreted_function_finder_proc", %"struct.datalog::quantifier_finder_proc", [5 x i8], %class.expr_sparse_mark, %"struct.datalog::fd_finder_proc" }
%"class.datalog::rule_counter" = type { %class.var_counter }
%class.var_counter = type { %class.counter, %class.ast_fast_mark, %class.expr_free_vars, %class.ptr_vector.42, %class.svector }
%class.counter = type { %class.u_map.51 }
%class.u_map.51 = type { %class.map.52 }
%class.map.52 = type { %class.table2map.53 }
%class.table2map.53 = type { %class.core_hashtable.54 }
%class.core_hashtable.54 = type <{ ptr, i32, i32, i32, [4 x i8] }>
%class.ast_fast_mark = type { %class.ptr_buffer }
%class.ptr_buffer = type { %class.buffer }
%class.buffer = type { ptr, i32, i32, [16 x %"union.std::aligned_storage<8, 8>::type"] }
%"union.std::aligned_storage<8, 8>::type" = type { [8 x i8] }
%class.used_vars = type { %class.ptr_vector, %class.hashtable, %class.svector.60, i32, i32 }
%class.hashtable = type { %class.core_hashtable.base.59, [4 x i8] }
%class.core_hashtable.base.59 = type <{ ptr, i32, i32, i32 }>
%class.svector.60 = type { %class.vector.61 }
%class.vector.61 = type { ptr }
%class.uint_set = type { %class.svector }
%class.svector.62 = type { %class.vector.63 }
%class.vector.63 = type { ptr }
%class.hnf = type { ptr }
%class.qe_lite = type { ptr }
%class.label_rewriter = type { i32, %class.rewriter_tpl.64 }
%class.rewriter_tpl.64 = type { %class.rewriter_core, ptr, i32, %class.ptr_vector.42, %class.var_shifter, %class.inv_var_shifter, %class.obj_ref.49, %class.obj_ref.50, %class.obj_ref.50, %class.svector }
%"struct.datalog::uninterpreted_function_finder_proc" = type { ptr, %"class.datatype::util", %"class.datalog::dl_decl_util", i8, ptr }
%"class.datatype::util" = type { ptr, i32, ptr, %class.obj_map.65, %class.obj_map.70, %class.obj_map.75, %class.obj_map.28, %class.obj_map.28, %class.obj_map.28, %class.obj_map.80, %class.obj_map.80, %class.obj_map.80, %class.ref_vector.85, %class.ref_vector_core.90, %class.ptr_vector.93, i32, %class.ptr_vector }
%class.obj_map.65 = type { %class.core_hashtable.66 }
%class.core_hashtable.66 = type <{ ptr, i32, i32, i32, [4 x i8] }>
%class.obj_map.70 = type { %class.core_hashtable.71 }
%class.core_hashtable.71 = type <{ ptr, i32, i32, i32, [4 x i8] }>
%class.obj_map.75 = type { %class.core_hashtable.76 }
%class.core_hashtable.76 = type <{ ptr, i32, i32, i32, [4 x i8] }>
%class.obj_map.28 = type { %class.core_hashtable.29 }
%class.core_hashtable.29 = type <{ ptr, i32, i32, i32, [4 x i8] }>
%class.obj_map.80 = type { %class.core_hashtable.81 }
%class.core_hashtable.81 = type <{ ptr, i32, i32, i32, [4 x i8] }>
%class.ref_vector_core.90 = type { %class.ptr_vector.91 }
%class.ptr_vector.91 = type { %class.vector.92 }
%class.vector.92 = type { ptr }
%class.ptr_vector.93 = type { %class.vector.94 }
%class.vector.94 = type { ptr }
%"struct.datalog::quantifier_finder_proc" = type { i8, i8, i8 }
%class.expr_sparse_mark = type { %class.obj_hashtable }
%"struct.datalog::fd_finder_proc" = type <{ ptr, %class.bv_util, i8, [7 x i8] }>
%class.bv_util = type { %class.bv_recognizers, ptr, ptr }
%class.bv_recognizers = type { i32 }
%"class.datalog::context::contains_pred" = type { %class.i_expr_pred, ptr }
%class.i_expr_pred = type { ptr }
%"class.datalog::rule_properties" = type <{ ptr, ptr, ptr, ptr, %"class.datatype::util", %"class.datalog::dl_decl_util", %class.arith_util, %class.bv_util, %class.array_util, %"class.recfun::util", i8, [7 x i8], ptr, %class.obj_map.95, %class.obj_map.100, %class.ptr_vector.105, %class.ptr_vector.105, %class.ptr_vector.105, i8, i8, [6 x i8] }>
%class.arith_util = type { ptr, ptr }
%class.array_util = type { %class.array_recognizers, ptr }
%class.array_recognizers = type { i32 }
%"class.recfun::util" = type { ptr, i32, ptr }
%class.obj_map.95 = type { %class.core_hashtable.96 }
%class.core_hashtable.96 = type <{ ptr, i32, i32, i32, [4 x i8] }>
%class.obj_map.100 = type { %class.core_hashtable.101 }
%class.core_hashtable.101 = type <{ ptr, i32, i32, i32, [4 x i8] }>
%class.ptr_vector.105 = type { %class.vector.106 }
%class.vector.106 = type { ptr }
%"class.datalog::rule_transformer" = type { ptr, ptr, i8, %class.svector.107 }
%class.svector.107 = type { %class.vector.108 }
%class.vector.108 = type { ptr }
%class.trail_stack = type { %class.ptr_vector.109, %class.svector, %class.region }
%class.ptr_vector.109 = type { %class.vector.110 }
%class.vector.110 = type { ptr }
%class.region = type { ptr, ptr, ptr, ptr, ptr }
%class.ref_vector.85 = type { %class.ref_vector_core.86 }
%class.ref_vector_core.86 = type { %class.ref_manager_wrapper.87, %class.ptr_vector.88 }
%class.ref_manager_wrapper.87 = type { ptr }
%class.ptr_vector.88 = type { %class.vector.89 }
%class.vector.89 = type { ptr }
%class.bind_variables = type { ptr, %class.ref_vector, %class.obj_map.111, %class.obj_map.116, %class.ref_vector.39, %class.ptr_vector, %class.svector.13, %class.ptr_vector.42, %class.ptr_vector.42 }
%class.obj_map.111 = type { %class.core_hashtable.112 }
%class.core_hashtable.112 = type <{ ptr, i32, i32, i32, [4 x i8] }>
%class.obj_map.116 = type { %class.core_hashtable.117 }
%class.core_hashtable.117 = type <{ ptr, i32, i32, i32, [4 x i8] }>
%class.obj_map.121 = type { %class.core_hashtable.122 }
%class.core_hashtable.122 = type <{ ptr, i32, i32, i32, [4 x i8] }>
%class.obj_hashtable.126 = type { %class.core_hashtable.base.130, [4 x i8] }
%class.core_hashtable.base.130 = type <{ ptr, i32, i32, i32 }>
%class.map.132 = type { %class.table2map.133 }
%class.table2map.133 = type { %class.core_hashtable.134 }
%class.core_hashtable.134 = type <{ ptr, i32, i32, i32, [4 x i8] }>
%class.obj_map.136 = type { %class.core_hashtable.137 }
%class.core_hashtable.137 = type <{ ptr, i32, i32, i32, [4 x i8] }>
%"class.datalog::rule_set" = type { ptr, ptr, %class.ref_vector.141, %class.obj_map.144, %"class.datalog::rule_dependencies", %class.scoped_ptr.154, %class.obj_hashtable.126, %class.obj_map.28, %class.obj_map.28, %class.ref_vector.155, %class.ptr_vector.105 }
%class.ref_vector.141 = type { %class.ref_vector_core.142 }
%class.ref_vector_core.142 = type { %class.ref_manager_wrapper.143, %class.ptr_vector.105 }
%class.ref_manager_wrapper.143 = type { ptr }
%class.obj_map.144 = type { %class.core_hashtable.145 }
%class.core_hashtable.145 = type <{ ptr, i32, i32, i32, [4 x i8] }>
%"class.datalog::rule_dependencies" = type { %class.obj_map.149, ptr, %class.ptr_vector.42, %class.expr_sparse_mark, %class.obj_hashtable.126 }
%class.obj_map.149 = type { %class.core_hashtable.150 }
%class.core_hashtable.150 = type <{ ptr, i32, i32, i32, [4 x i8] }>
%class.scoped_ptr.154 = type { ptr }
%class.ref_vector.155 = type { %class.ref_vector_core.156 }
%class.ref_vector_core.156 = type { %class.ref_manager_wrapper.157, %class.ptr_vector.158 }
%class.ref_manager_wrapper.157 = type { ptr }
%class.ptr_vector.158 = type { %class.vector.159 }
%class.vector.159 = type { ptr }
%class.expr_free_vars = type { %class.expr_sparse_mark, %class.ptr_vector, %class.ptr_vector.42 }
%class.svector.13 = type { %class.vector.14 }
%class.vector.14 = type { ptr }
%class.vector.160 = type { ptr }
%class.ref_vector.39 = type { %class.ref_vector_core.40 }
%class.ref_vector_core.40 = type { %class.ref_manager_wrapper.41, %class.ptr_vector.42 }
%class.ref_manager_wrapper.41 = type { ptr }
%class.ref = type { ptr }
%class.ref.161 = type { ptr }
%class.scoped_ptr.162 = type { ptr }
%class.obj_ref.49 = type { ptr, ptr }
%"class.datalog::mk_explanations" = type { %"class.datalog::rule_transformer::plugin", ptr, ptr, ptr, i8, %class.ref_vector.85, ptr, ptr, %"class.datalog::scoped_rel", %class.obj_map.28 }
%"class.datalog::rule_transformer::plugin" = type { ptr, i32, i8, ptr }
%"class.datalog::scoped_rel" = type { ptr }
%class.scoped_ptr.224 = type { ptr }

; Function Attrs: mustprogress nounwind uwtable
define linkonce_odr hidden noundef zeroext i1 @_ZNK6vectorIPN7datalog4ruleELb0EjE5emptyEv(ptr noundef nonnull align 8 dereferenceable(8) %this) #5 comdat align 2 {
entry:
  %this.addr = alloca ptr, align 8
  store ptr %this, ptr %this.addr, align 8
  %this1 = load ptr, ptr %this.addr, align 8
  %m_data = getelementptr inbounds %class.vector.106, ptr %this1, i32 0, i32 0
  %0 = load ptr, ptr %m_data, align 8
  %cmp = icmp eq ptr %0, null
  br i1 %cmp, label %lor.end, label %lor.rhs

lor.rhs:                                          ; preds = %entry
  %m_data2 = getelementptr inbounds %class.vector.106, ptr %this1, i32 0, i32 0
  %1 = load ptr, ptr %m_data2, align 8
  %arrayidx = getelementptr inbounds i32, ptr %1, i64 -1
  %2 = load i32, ptr %arrayidx, align 4
  %cmp3 = icmp eq i32 %2, 0
  br label %lor.end

lor.end:                                          ; preds = %lor.rhs, %entry
  %3 = phi i1 [ true, %entry ], [ %cmp3, %lor.rhs ]
  ret i1 %3
}

; Function Attrs: mustprogress uwtable
define linkonce_odr hidden noundef zeroext i1 @_ZNK15ref_vector_coreIN7datalog4ruleE19ref_manager_wrapperIS1_NS0_12rule_managerEEE5emptyEv(ptr noundef nonnull align 8 dereferenceable(16) %this) #4 comdat align 2 {
entry:
  %this.addr = alloca ptr, align 8
  store ptr %this, ptr %this.addr, align 8
  %this1 = load ptr, ptr %this.addr, align 8
  %m_nodes = getelementptr inbounds %class.ref_vector_core.142, ptr %this1, i32 0, i32 1
  %call = call noundef zeroext i1 @_ZNK6vectorIPN7datalog4ruleELb0EjE5emptyEv(ptr noundef nonnull align 8 dereferenceable(8) %m_nodes)
  ret i1 %call
}

; Function Attrs: mustprogress nounwind uwtable
define linkonce_odr hidden noundef ptr @_ZN10scoped_ptrIN7datalog8rule_setEE6detachEv(ptr noundef nonnull align 8 dereferenceable(8) %this) #5 comdat align 2 {
entry:
  %this.addr = alloca ptr, align 8
  %tmp = alloca ptr, align 8
  store ptr %this, ptr %this.addr, align 8
  %this1 = load ptr, ptr %this.addr, align 8
  %m_ptr = getelementptr inbounds %class.scoped_ptr.224, ptr %this1, i32 0, i32 0
  %0 = load ptr, ptr %m_ptr, align 8
  store ptr %0, ptr %tmp, align 8
  %m_ptr2 = getelementptr inbounds %class.scoped_ptr.224, ptr %this1, i32 0, i32 0
  store ptr null, ptr %m_ptr2, align 8
  %1 = load ptr, ptr %tmp, align 8
  ret ptr %1
}

; Function Attrs: mustprogress nounwind uwtable
define linkonce_odr hidden noundef nonnull align 8 dereferenceable(248) ptr @_ZN10scoped_ptrIN7datalog8rule_setEEdeEv(ptr noundef nonnull align 8 dereferenceable(8) %this) #5 comdat align 2 {
entry:
  %this.addr = alloca ptr, align 8
  store ptr %this, ptr %this.addr, align 8
  %this1 = load ptr, ptr %this.addr, align 8
  %m_ptr = getelementptr inbounds %class.scoped_ptr.224, ptr %this1, i32 0, i32 0
  %0 = load ptr, ptr %m_ptr, align 8
  ret ptr %0
}

; Function Attrs: mustprogress uwtable
define linkonce_odr hidden noundef ptr @_ZN7datalog7context15get_rel_contextEv(ptr noundef nonnull align 8 dereferenceable(3556) %this) #4 comdat align 2 {
entry:
  %this.addr = alloca ptr, align 8
  store ptr %this, ptr %this.addr, align 8
  %this1 = load ptr, ptr %this.addr, align 8
  call void @_ZN7datalog7context13ensure_engineEP4expr(ptr noundef nonnull align 8 dereferenceable(3556) %this1, ptr noundef null)
  %m_rel = getelementptr inbounds %"class.datalog::context", ptr %this1, i32 0, i32 34
  %0 = load ptr, ptr %m_rel, align 8
  ret ptr %0
}

; Function Attrs: mustprogress nounwind uwtable
define linkonce_odr hidden void @_ZN10scoped_ptrIN7datalog8rule_setEEC2EPS1_(ptr noundef nonnull align 8 dereferenceable(8) %this, ptr noundef %ptr) unnamed_addr #5 comdat align 2 {
entry:
  %this.addr = alloca ptr, align 8
  %ptr.addr = alloca ptr, align 8
  store ptr %this, ptr %this.addr, align 8
  store ptr %ptr, ptr %ptr.addr, align 8
  %this1 = load ptr, ptr %this.addr, align 8
  %m_ptr = getelementptr inbounds %class.scoped_ptr.224, ptr %this1, i32 0, i32 0
  %0 = load ptr, ptr %ptr.addr, align 8
  store ptr %0, ptr %m_ptr, align 8
  ret void
}

; Function Attrs: mustprogress uwtable
define linkonce_odr hidden noundef zeroext i1 @_ZNK7datalog8rule_set5emptyEv(ptr noundef nonnull align 8 dereferenceable(248) %this) #4 comdat align 2 {
entry:
  %this.addr = alloca ptr, align 8
  store ptr %this, ptr %this.addr, align 8
  %this1 = load ptr, ptr %this.addr, align 8
  %m_rules = getelementptr inbounds %"class.datalog::rule_set", ptr %this1, i32 0, i32 2
  %call = call noundef zeroext i1 @_ZNK15ref_vector_coreIN7datalog4ruleE19ref_manager_wrapperIS1_NS0_12rule_managerEEE5emptyEv(ptr noundef nonnull align 8 dereferenceable(16) %m_rules)
  ret i1 %call
}

; Function Attrs: mustprogress uwtable
define hidden noundef ptr @_ZN7datalog15mk_explanationsclERKNS_8rule_setE(ptr noundef nonnull align 8 dereferenceable(120) %this, ptr noundef nonnull align 8 dereferenceable(248) %source) unnamed_addr #4 align 2 personality ptr @__gxx_personality_v0 {
entry:
  %retval = alloca ptr, align 8
  %this.addr = alloca ptr, align 8
  %source.addr = alloca ptr, align 8
  %res = alloca %class.scoped_ptr.224, align 8
  %exn.slot = alloca ptr, align 8
  %ehselector.slot = alloca i32, align 4
  store ptr %this, ptr %this.addr, align 8
  store ptr %source, ptr %source.addr, align 8
  %this1 = load ptr, ptr %this.addr, align 8
  %0 = load ptr, ptr %source.addr, align 8
  %call = call noundef zeroext i1 @_ZNK7datalog8rule_set5emptyEv(ptr noundef nonnull align 8 dereferenceable(248) %0)
  br i1 %call, label %if.then, label %if.end

if.then:                                          ; preds = %entry
  store ptr null, ptr %retval, align 8
  br label %return

if.end:                                           ; preds = %entry
  %m_context = getelementptr inbounds %"class.datalog::mk_explanations", ptr %this1, i32 0, i32 2
  %1 = load ptr, ptr %m_context, align 8
  %call2 = call noundef zeroext i1 @_ZNK7datalog7context21generate_explanationsEv(ptr noundef nonnull align 8 dereferenceable(3556) %1)
  br i1 %call2, label %if.end4, label %if.then3

if.then3:                                         ; preds = %if.end
  store ptr null, ptr %retval, align 8
  br label %return

if.end4:                                          ; preds = %if.end
  %call5 = call noalias noundef ptr @_ZN6memory8allocateEm(i64 noundef 248)
  %m_context6 = getelementptr inbounds %"class.datalog::mk_explanations", ptr %this1, i32 0, i32 2
  %2 = load ptr, ptr %m_context6, align 8
  call void @_ZN7datalog8rule_setC1ERNS_7contextE(ptr noundef nonnull align 8 dereferenceable(248) %call5, ptr noundef nonnull align 8 dereferenceable(3556) %2)
  call void @_ZN10scoped_ptrIN7datalog8rule_setEEC2EPS1_(ptr noundef nonnull align 8 dereferenceable(8) %res, ptr noundef %call5)
  %m_context7 = getelementptr inbounds %"class.datalog::mk_explanations", ptr %this1, i32 0, i32 2
  %3 = load ptr, ptr %m_context7, align 8
  %call8 = invoke noundef ptr @_ZN7datalog7context15get_rel_contextEv(ptr noundef nonnull align 8 dereferenceable(3556) %3)
          to label %invoke.cont unwind label %lpad

invoke.cont:                                      ; preds = %if.end4
  %vtable = load ptr, ptr %call8, align 8
  %vfn = getelementptr inbounds ptr, ptr %vtable, i64 24
  %4 = load ptr, ptr %vfn, align 8
  %call10 = invoke noundef nonnull align 8 dereferenceable(200) ptr %4(ptr noundef nonnull align 8 dereferenceable(48) %call8)
          to label %invoke.cont9 unwind label %lpad

invoke.cont9:                                     ; preds = %invoke.cont
  %5 = load ptr, ptr %source.addr, align 8
  %call12 = invoke noundef nonnull align 8 dereferenceable(248) ptr @_ZN10scoped_ptrIN7datalog8rule_setEEdeEv(ptr noundef nonnull align 8 dereferenceable(8) %res)
          to label %invoke.cont11 unwind label %lpad

invoke.cont11:                                    ; preds = %invoke.cont9
  invoke void @_ZN7datalog15mk_explanations15transform_factsERNS_16relation_managerERKNS_8rule_setERS3_(ptr noundef nonnull align 8 dereferenceable(120) %this1, ptr noundef nonnull align 8 dereferenceable(200) %call10, ptr noundef nonnull align 8 dereferenceable(248) %5, ptr noundef nonnull align 8 dereferenceable(248) %call12)
          to label %invoke.cont13 unwind label %lpad

invoke.cont13:                                    ; preds = %invoke.cont11
  %6 = load ptr, ptr %source.addr, align 8
  %call15 = invoke noundef nonnull align 8 dereferenceable(248) ptr @_ZN10scoped_ptrIN7datalog8rule_setEEdeEv(ptr noundef nonnull align 8 dereferenceable(8) %res)
          to label %invoke.cont14 unwind label %lpad

invoke.cont14:                                    ; preds = %invoke.cont13
  invoke void @_ZN7datalog15mk_explanations15transform_rulesERKNS_8rule_setERS1_(ptr noundef nonnull align 8 dereferenceable(120) %this1, ptr noundef nonnull align 8 dereferenceable(248) %6, ptr noundef nonnull align 8 dereferenceable(248) %call15)
          to label %invoke.cont16 unwind label %lpad

invoke.cont16:                                    ; preds = %invoke.cont14
  %call18 = invoke noundef ptr @_ZN10scoped_ptrIN7datalog8rule_setEE6detachEv(ptr noundef nonnull align 8 dereferenceable(8) %res)
          to label %invoke.cont17 unwind label %lpad

invoke.cont17:                                    ; preds = %invoke.cont16
  store ptr %call18, ptr %retval, align 8
  call void @_ZN10scoped_ptrIN7datalog8rule_setEED2Ev(ptr noundef nonnull align 8 dereferenceable(8) %res) #3
  br label %return

lpad:                                             ; preds = %invoke.cont16, %invoke.cont14, %invoke.cont13, %invoke.cont11, %invoke.cont9, %invoke.cont, %if.end4
  %7 = landingpad { ptr, i32 }
          cleanup
  %8 = extractvalue { ptr, i32 } %7, 0
  store ptr %8, ptr %exn.slot, align 8
  %9 = extractvalue { ptr, i32 } %7, 1
  store i32 %9, ptr %ehselector.slot, align 4
  call void @_ZN10scoped_ptrIN7datalog8rule_setEED2Ev(ptr noundef nonnull align 8 dereferenceable(8) %res) #3
  br label %eh.resume

return:                                           ; preds = %invoke.cont17, %if.then3, %if.then
  %10 = load ptr, ptr %retval, align 8
  ret ptr %10

eh.resume:                                        ; preds = %lpad
  %exn = load ptr, ptr %exn.slot, align 8
  %sel = load i32, ptr %ehselector.slot, align 4
  %lpad.val = insertvalue { ptr, i32 } poison, ptr %exn, 0
  %lpad.val19 = insertvalue { ptr, i32 } %lpad.val, i32 %sel, 1
  resume { ptr, i32 } %lpad.val19
}