; Function Attrs: mustprogress uwtable
define hidden noundef ptr @_ZN7datalog15mk_explanationsclERKNS_8rule_setE(ptr noundef nonnull align 8 dereferenceable(120) %this, ptr noundef nonnull align 8 dereferenceable(248) %source) unnamed_addr #3 align 2 personality ptr @__gxx_personality_v0 {
entry:
  %res = alloca %class.scoped_ptr.224, align 8
  %m_nodes.i.i = getelementptr inbounds i8, ptr %source, i64 24
  %0 = load ptr, ptr %m_nodes.i.i, align 8
  %cmp.i.i.i = icmp eq ptr %0, null
  br i1 %cmp.i.i.i, label %return, label %_ZNK7datalog8rule_set5emptyEv.exit

_ZNK7datalog8rule_set5emptyEv.exit:               ; preds = %entry
  %arrayidx.i.i.i = getelementptr inbounds i8, ptr %0, i64 -4
  %1 = load i32, ptr %arrayidx.i.i.i, align 4
  %cmp3.i.i.i = icmp eq i32 %1, 0
  br i1 %cmp3.i.i.i, label %return, label %if.end

if.end:                                           ; preds = %_ZNK7datalog8rule_set5emptyEv.exit
  %m_context = getelementptr inbounds i8, ptr %this, i64 32
  %2 = load ptr, ptr %m_context, align 8
  %call2 = tail call noundef zeroext i1 @_ZNK7datalog7context21generate_explanationsEv(ptr noundef nonnull align 8 dereferenceable(3556) %2)
  br i1 %call2, label %if.end4, label %return

if.end4:                                          ; preds = %if.end
  %call5 = tail call noalias noundef ptr @_ZN6memory8allocateEm(i64 noundef 248)
  %3 = load ptr, ptr %m_context, align 8
  tail call void @_ZN7datalog8rule_setC1ERNS_7contextE(ptr noundef nonnull align 8 dereferenceable(248) %call5, ptr noundef nonnull align 8 dereferenceable(3556) %3)
  store ptr %call5, ptr %res, align 8
  %4 = load ptr, ptr %m_context, align 8
  invoke void @_ZN7datalog7context13ensure_engineEP4expr(ptr noundef nonnull align 8 dereferenceable(3556) %4, ptr noundef null)
          to label %invoke.cont unwind label %lpad

invoke.cont:                                      ; preds = %if.end4
  %m_rel.i = getelementptr inbounds i8, ptr %4, i64 3496
  %5 = load ptr, ptr %m_rel.i, align 8
  %vtable = load ptr, ptr %5, align 8
  %vfn = getelementptr inbounds i8, ptr %vtable, i64 192
  %6 = load ptr, ptr %vfn, align 8
  %call10 = invoke noundef nonnull align 8 dereferenceable(200) ptr %6(ptr noundef nonnull align 8 dereferenceable(48) %5)
          to label %invoke.cont9 unwind label %lpad

invoke.cont9:                                     ; preds = %invoke.cont
  invoke void @_ZN7datalog15mk_explanations15transform_factsERNS_16relation_managerERKNS_8rule_setERS3_(ptr noundef nonnull align 8 dereferenceable(120) %this, ptr noundef nonnull align 8 dereferenceable(200) %call10, ptr noundef nonnull align 8 dereferenceable(248) %source, ptr noundef nonnull align 8 dereferenceable(248) %call5)
          to label %invoke.cont13 unwind label %lpad

invoke.cont13:                                    ; preds = %invoke.cont9
  invoke void @_ZN7datalog15mk_explanations15transform_rulesERKNS_8rule_setERS1_(ptr noundef nonnull align 8 dereferenceable(120) %this, ptr noundef nonnull align 8 dereferenceable(248) %source, ptr noundef nonnull align 8 dereferenceable(248) %call5)
          to label %return unwind label %lpad

lpad:                                             ; preds = %if.end4, %invoke.cont13, %invoke.cont9, %invoke.cont
  %7 = landingpad { ptr, i32 }
          cleanup
  call void @_ZN10scoped_ptrIN7datalog8rule_setEED2Ev(ptr noundef nonnull align 8 dereferenceable(8) %res) #16
  resume { ptr, i32 } %7

return:                                           ; preds = %invoke.cont13, %entry, %if.end, %_ZNK7datalog8rule_set5emptyEv.exit
  %retval.0 = phi ptr [ null, %_ZNK7datalog8rule_set5emptyEv.exit ], [ null, %if.end ], [ null, %entry ], [ %call5, %invoke.cont13 ]
  ret ptr %retval.0
}